; Function Attrs: mustprogress uwtable
define dso_local void @_ZN4pbrt10ThreadPool7DisableEv(ptr noundef nonnull align 8 captures(none) dereferenceable(128) %0) local_unnamed_addr #0 align 2 {
  %2 = getelementptr inbounds nuw i8, ptr %0, i64 65
  %3 = load i8, ptr %2, align 1, !tbaa !81, !range !41, !noundef !78
  %4 = trunc nuw i8 %3 to i1
  br i1 %4, label %5, label %6

5:                                                ; preds = %1
  tail call void @_ZN4pbrt8LogFatalIJRA10_KcEEEvNS_8LogLevelEPS1_iS5_DpOT_(i32 noundef 2, ptr noundef nonnull @.str.1, i32 noundef 152, ptr noundef nonnull @.str.7, ptr noundef nonnull align 1 dereferenceable(10) @.str.8) #27
  unreachable

6:                                                ; preds = %1
  store i8 1, ptr %2, align 1, !tbaa !81
  %7 = getelementptr inbounds nuw i8, ptr %0, i64 72
  %8 = load ptr, ptr %7, align 8, !tbaa !45
  %9 = icmp eq ptr %8, null
  br i1 %9, label %11, label %10

10:                                               ; preds = %6
  tail call void @_ZN4pbrt8LogFatalIJRA19_KcEEEvNS_8LogLevelEPS1_iS5_DpOT_(i32 noundef 2, ptr noundef nonnull @.str.1, i32 noundef 154, ptr noundef nonnull @.str.7, ptr noundef nonnull align 1 dereferenceable(19) @.str.9) #27
  unreachable

11:                                               ; preds = %6
  ret void
}